target datalayout = "e-m:e-p270:32:32-p271:32:32-p272:64:64-i64:64-i128:128-f80:128-n8:16:32:64-S128"
target triple = "x86_64-pc-linux-gnu"

%struct.prolog_state = type { ptr, i32, i32, i32, i32, i32 }
%struct.encoding = type { [4 x ptr], [2 x ptr], ptr, ptr, ptr, ptr, ptr, ptr, ptr, ptr, ptr, ptr, i32, i8, i8 }

@KW_DOCTYPE = internal constant [8 x i8] c"DOCTYPE\00", align 1

; Function Attrs: nounwind uwtable
define internal i32 @common(ptr noundef %0, i32 noundef %1) #0 {
  %3 = alloca i32, align 4
  %4 = alloca ptr, align 8
  %5 = alloca i32, align 4
  store ptr %0, ptr %4, align 8, !tbaa !3
  store i32 %1, ptr %5, align 4, !tbaa !14
  %6 = load ptr, ptr %4, align 8, !tbaa !3
  %7 = getelementptr inbounds nuw %struct.prolog_state, ptr %6, i32 0, i32 4
  %8 = load i32, ptr %7, align 4, !tbaa !11
  %9 = icmp ne i32 %8, 0
  br i1 %9, label %14, label %10

10:                                               ; preds = %2
  %11 = load i32, ptr %5, align 4, !tbaa !14
  %12 = icmp eq i32 %11, 28
  br i1 %12, label %13, label %14

13:                                               ; preds = %10
  store i32 59, ptr %3, align 4
  br label %17

14:                                               ; preds = %10, %2
  %15 = load ptr, ptr %4, align 8, !tbaa !3
  %16 = getelementptr inbounds nuw %struct.prolog_state, ptr %15, i32 0, i32 0
  store ptr @error, ptr %16, align 8, !tbaa !8
  store i32 -1, ptr %3, align 4
  br label %17

17:                                               ; preds = %14, %13
  %18 = load i32, ptr %3, align 4
  ret i32 %18
}

; Function Attrs: nounwind uwtable
define internal i32 @prolog0(ptr noundef %0, i32 noundef %1, ptr noundef %2, ptr noundef %3, ptr noundef %4) #0 {
  %6 = alloca i32, align 4
  %7 = alloca ptr, align 8
  %8 = alloca i32, align 4
  %9 = alloca ptr, align 8
  %10 = alloca ptr, align 8
  %11 = alloca ptr, align 8
  store ptr %0, ptr %7, align 8, !tbaa !3
  store i32 %1, ptr %8, align 4, !tbaa !14
  store ptr %2, ptr %9, align 8, !tbaa !15
  store ptr %3, ptr %10, align 8, !tbaa !15
  store ptr %4, ptr %11, align 8, !tbaa !17
  %12 = load i32, ptr %8, align 4, !tbaa !14
  switch i32 %12, label %48 [
    i32 15, label %13
    i32 12, label %16
    i32 11, label %19
    i32 13, label %22
    i32 14, label %25
    i32 16, label %26
    i32 29, label %45
  ]

13:                                               ; preds = %5
  %14 = load ptr, ptr %7, align 8, !tbaa !3
  %15 = getelementptr inbounds nuw %struct.prolog_state, ptr %14, i32 0, i32 0
  store ptr @prolog1, ptr %15, align 8, !tbaa !8
  store i32 0, ptr %6, align 4
  br label %52

16:                                               ; preds = %5
  %17 = load ptr, ptr %7, align 8, !tbaa !3
  %18 = getelementptr inbounds nuw %struct.prolog_state, ptr %17, i32 0, i32 0
  store ptr @prolog1, ptr %18, align 8, !tbaa !8
  store i32 1, ptr %6, align 4
  br label %52

19:                                               ; preds = %5
  %20 = load ptr, ptr %7, align 8, !tbaa !3
  %21 = getelementptr inbounds nuw %struct.prolog_state, ptr %20, i32 0, i32 0
  store ptr @prolog1, ptr %21, align 8, !tbaa !8
  store i32 55, ptr %6, align 4
  br label %52

22:                                               ; preds = %5
  %23 = load ptr, ptr %7, align 8, !tbaa !3
  %24 = getelementptr inbounds nuw %struct.prolog_state, ptr %23, i32 0, i32 0
  store ptr @prolog1, ptr %24, align 8, !tbaa !8
  store i32 56, ptr %6, align 4
  br label %52

25:                                               ; preds = %5
  store i32 0, ptr %6, align 4
  br label %52

26:                                               ; preds = %5
  %27 = load ptr, ptr %11, align 8, !tbaa !17
  %28 = getelementptr inbounds nuw %struct.encoding, ptr %27, i32 0, i32 2
  %29 = load ptr, ptr %28, align 8, !tbaa !19
  %30 = load ptr, ptr %11, align 8, !tbaa !17
  %31 = load ptr, ptr %9, align 8, !tbaa !15
  %32 = load ptr, ptr %11, align 8, !tbaa !17
  %33 = getelementptr inbounds nuw %struct.encoding, ptr %32, i32 0, i32 12
  %34 = load i32, ptr %33, align 8, !tbaa !21
  %35 = mul i32 2, %34
  %36 = sext i32 %35 to i64
  %37 = getelementptr i8, ptr %31, i64 %36
  %38 = load ptr, ptr %10, align 8, !tbaa !15
  %39 = call i32 %29(ptr noundef %30, ptr noundef %37, ptr noundef %38, ptr noundef @KW_DOCTYPE)
  %40 = icmp ne i32 %39, 0
  br i1 %40, label %42, label %41

41:                                               ; preds = %26
  br label %48

42:                                               ; preds = %26
  %43 = load ptr, ptr %7, align 8, !tbaa !3
  %44 = getelementptr inbounds nuw %struct.prolog_state, ptr %43, i32 0, i32 0
  store ptr @doctype0, ptr %44, align 8, !tbaa !8
  store i32 3, ptr %6, align 4
  br label %52

45:                                               ; preds = %5
  %46 = load ptr, ptr %7, align 8, !tbaa !3
  %47 = getelementptr inbounds nuw %struct.prolog_state, ptr %46, i32 0, i32 0
  store ptr @error, ptr %47, align 8, !tbaa !8
  store i32 2, ptr %6, align 4
  br label %52

48:                                               ; preds = %5, %41
  %49 = load ptr, ptr %7, align 8, !tbaa !3
  %50 = load i32, ptr %8, align 4, !tbaa !14
  %51 = call i32 @common(ptr noundef %49, i32 noundef %50)
  store i32 %51, ptr %6, align 4
  br label %52

52:                                               ; preds = %48, %45, %42, %25, %22, %19, %16, %13
  %53 = load i32, ptr %6, align 4
  ret i32 %53
}