; Function Attrs: nounwind uwtable
define internal range(i32 -1, 60) i32 @prolog0(ptr noundef captures(none) %0, i32 noundef %1, ptr noundef %2, ptr noundef %3, ptr noundef %4) #1 {
  switch i32 %1, label %19 [
    i32 15, label %common.exit.sink.split
    i32 12, label %6
    i32 11, label %7
    i32 13, label %8
    i32 14, label %common.exit
    i32 16, label %9
    i32 29, label %18
  ]

6:                                                ; preds = %5
  br label %common.exit.sink.split

7:                                                ; preds = %5
  br label %common.exit.sink.split

8:                                                ; preds = %5
  br label %common.exit.sink.split

9:                                                ; preds = %5
  %10 = getelementptr inbounds nuw i8, ptr %4, i64 48
  %11 = load ptr, ptr %10, align 8, !tbaa !12
  %12 = getelementptr inbounds nuw i8, ptr %4, i64 128
  %13 = load i32, ptr %12, align 8, !tbaa !14
  %14 = shl i32 %13, 1
  %15 = sext i32 %14 to i64
  %16 = getelementptr i8, ptr %2, i64 %15
  %17 = tail call i32 %11(ptr noundef %4, ptr noundef %16, ptr noundef %3, ptr noundef nonnull @KW_DOCTYPE) #5
  %.not = icmp eq i32 %17, 0
  br i1 %.not, label %.thread, label %common.exit.sink.split

18:                                               ; preds = %5
  br label %common.exit.sink.split

19:                                               ; preds = %5
  %20 = getelementptr inbounds nuw i8, ptr %0, i64 20
  %21 = load i32, ptr %20, align 4, !tbaa !9
  %22 = icmp eq i32 %21, 0
  %23 = icmp eq i32 %1, 28
  %or.cond.i = and i1 %23, %22
  br i1 %or.cond.i, label %common.exit, label %.thread

.thread:                                          ; preds = %9, %19
  br label %common.exit.sink.split

common.exit.sink.split:                           ; preds = %9, %5, %6, %7, %8, %18, %.thread
  %error.sink = phi ptr [ @error, %.thread ], [ @error, %18 ], [ @prolog1, %8 ], [ @prolog1, %7 ], [ @prolog1, %6 ], [ @prolog1, %5 ], [ @doctype0, %9 ]
  %.0.ph = phi i32 [ -1, %.thread ], [ 2, %18 ], [ 56, %8 ], [ 55, %7 ], [ 1, %6 ], [ 0, %5 ], [ 3, %9 ]
  store ptr %error.sink, ptr %0, align 8, !tbaa !3
  br label %common.exit

common.exit:                                      ; preds = %common.exit.sink.split, %19, %5
  %.0 = phi i32 [ 0, %5 ], [ 59, %19 ], [ %.0.ph, %common.exit.sink.split ]
  ret i32 %.0
}